; Function Attrs: mustprogress uwtable
define hidden noundef ptr @_Z14mk_occf_tacticR11ast_managerRK10params_ref(ptr noundef nonnull align 8 dereferenceable(976) %0, ptr noundef nonnull readnone align 8 captures(none) dereferenceable(8) %1) local_unnamed_addr #3 personality ptr @__gxx_personality_v0 {
  %3 = tail call noalias noundef ptr @_ZN6memory8allocateEm(i64 noundef 24)
  %4 = getelementptr inbounds nuw i8, ptr %3, i64 8
  store i32 0, ptr %4, align 8, !tbaa !3
  store ptr getelementptr inbounds nuw inrange(-16, 192) (i8, ptr @_ZTV11occf_tactic, i64 16), ptr %3, align 8, !tbaa !9
  %5 = tail call noalias noundef ptr @_ZN6memory8allocateEm(i64 noundef 16)
  store ptr %0, ptr %5, align 8, !tbaa !11
  %6 = getelementptr inbounds nuw i8, ptr %3, i64 16
  store ptr %5, ptr %6, align 8, !tbaa !14
  %7 = tail call noundef ptr @_Z5cleanP6tactic(ptr noundef nonnull %3)
  ret ptr %7
}